target datalayout = "e-m:e-p270:32:32-p271:32:32-p272:64:64-i64:64-i128:128-f80:128-n8:16:32:64-S128"
target triple = "x86_64-pc-linux-gnu"

%struct.AVFilterContext = type { ptr, ptr, ptr, ptr, ptr, i32, ptr, ptr, i32, ptr, ptr, i32, i32, ptr, ptr, ptr, ptr, i32, ptr, i32, i32 }
%struct.OverlayVAAPIContext = type { %struct.VAAPIVPPContext, %struct.FFFrameSync, [14 x double], ptr, ptr, ptr, ptr, i32, i32, i32, i32, float, i32, float }
%struct.VAAPIVPPContext = type { ptr, ptr, ptr, i32, i32, i32, ptr, ptr, %struct._VARectangle, i32, i32, i32, [10 x i32], i32, i32, ptr, ptr }
%struct._VARectangle = type { i16, i16, i16, i16 }
%struct.FFFrameSync = type { ptr, ptr, i32, %struct.AVRational, i64, ptr, ptr, i32, i32, i8, i8, ptr, i32, i32, i32, i32 }
%struct.AVRational = type { i32, i32 }
%struct.AVFilterLink = type { ptr, ptr, ptr, ptr, i32, i32, i32, i32, %struct.AVRational, i32, i32, i32, %struct.AVChannelLayout, %struct.AVRational, ptr, i32, %struct.AVFilterFormatsConfig, %struct.AVFilterFormatsConfig }
%struct.AVChannelLayout = type { i32, i32, %union.anon.1, ptr }
%union.anon.1 = type { i64 }
%struct.AVFilterFormatsConfig = type { ptr, ptr, ptr, ptr, ptr }

; Function Attrs: nounwind uwtable
define internal i32 @overlay_vaapi_config_input_main(ptr noundef %0) #0 {
  %2 = alloca ptr, align 8
  %3 = alloca ptr, align 8
  %4 = alloca ptr, align 8
  store ptr %0, ptr %2, align 8, !tbaa !32
  call void @llvm.lifetime.start.p0(i64 8, ptr %3) #7
  %5 = load ptr, ptr %2, align 8, !tbaa !32
  %6 = getelementptr inbounds nuw %struct.AVFilterLink, ptr %5, i32 0, i32 2
  %7 = load ptr, ptr %6, align 8, !tbaa !34
  store ptr %7, ptr %3, align 8, !tbaa !4
  call void @llvm.lifetime.start.p0(i64 8, ptr %4) #7
  %8 = load ptr, ptr %3, align 8, !tbaa !4
  %9 = getelementptr inbounds nuw %struct.AVFilterContext, ptr %8, i32 0, i32 9
  %10 = load ptr, ptr %9, align 8, !tbaa !9
  store ptr %10, ptr %4, align 8, !tbaa !22
  %11 = load ptr, ptr %2, align 8, !tbaa !32
  %12 = getelementptr inbounds nuw %struct.AVFilterLink, ptr %11, i32 0, i32 6
  %13 = load i32, ptr %12, align 8, !tbaa !42
  %14 = sitofp i32 %13 to double
  %15 = load ptr, ptr %4, align 8, !tbaa !22
  %16 = getelementptr inbounds nuw %struct.OverlayVAAPIContext, ptr %15, i32 0, i32 2
  %17 = getelementptr inbounds [14 x double], ptr %16, i64 0, i64 1
  store double %14, ptr %17, align 8, !tbaa !43
  %18 = load ptr, ptr %4, align 8, !tbaa !22
  %19 = getelementptr inbounds nuw %struct.OverlayVAAPIContext, ptr %18, i32 0, i32 2
  %20 = getelementptr inbounds [14 x double], ptr %19, i64 0, i64 0
  store double %14, ptr %20, align 8, !tbaa !43
  %21 = load ptr, ptr %2, align 8, !tbaa !32
  %22 = getelementptr inbounds nuw %struct.AVFilterLink, ptr %21, i32 0, i32 7
  %23 = load i32, ptr %22, align 4, !tbaa !45
  %24 = sitofp i32 %23 to double
  %25 = load ptr, ptr %4, align 8, !tbaa !22
  %26 = getelementptr inbounds nuw %struct.OverlayVAAPIContext, ptr %25, i32 0, i32 2
  %27 = getelementptr inbounds [14 x double], ptr %26, i64 0, i64 3
  store double %24, ptr %27, align 8, !tbaa !43
  %28 = load ptr, ptr %4, align 8, !tbaa !22
  %29 = getelementptr inbounds nuw %struct.OverlayVAAPIContext, ptr %28, i32 0, i32 2
  %30 = getelementptr inbounds [14 x double], ptr %29, i64 0, i64 2
  store double %24, ptr %30, align 8, !tbaa !43
  %31 = load ptr, ptr %2, align 8, !tbaa !32
  %32 = call i32 @ff_vaapi_vpp_config_input(ptr noundef %31)
  call void @llvm.lifetime.end.p0(i64 8, ptr %4) #7
  call void @llvm.lifetime.end.p0(i64 8, ptr %3) #7
  ret i32 %32
}