; Function Attrs: nounwind uwtable
define internal i32 @overlay_vaapi_config_input_main(ptr noundef %0) #0 {
  %2 = getelementptr inbounds nuw i8, ptr %0, i64 16
  %3 = load ptr, ptr %2, align 8, !tbaa !26
  %4 = getelementptr inbounds nuw i8, ptr %3, i64 72
  %5 = load ptr, ptr %4, align 8, !tbaa !4
  %6 = getelementptr inbounds nuw i8, ptr %0, i64 40
  %7 = load i32, ptr %6, align 8, !tbaa !35
  %8 = sitofp i32 %7 to double
  %9 = getelementptr inbounds nuw i8, ptr %5, i64 240
  %10 = getelementptr inbounds nuw i8, ptr %5, i64 248
  store double %8, ptr %10, align 8, !tbaa !36
  store double %8, ptr %9, align 8, !tbaa !36
  %11 = getelementptr inbounds nuw i8, ptr %0, i64 44
  %12 = load i32, ptr %11, align 4, !tbaa !38
  %13 = sitofp i32 %12 to double
  %14 = getelementptr inbounds nuw i8, ptr %5, i64 264
  store double %13, ptr %14, align 8, !tbaa !36
  %15 = getelementptr inbounds nuw i8, ptr %5, i64 256
  store double %13, ptr %15, align 8, !tbaa !36
  %16 = tail call i32 @ff_vaapi_vpp_config_input(ptr noundef %0) #7
  ret i32 %16
}